target datalayout = "e-m:e-p270:32:32-p271:32:32-p272:64:64-i64:64-i128:128-f80:128-n8:16:32:64-S128"
target triple = "x86_64-pc-linux-gnu"

%struct.wl_list = type { ptr, ptr }
%struct.SDL_AtomicInt = type { i32 }
%struct.SDL_VideoData = type { i8, ptr, i32, ptr, ptr, ptr, ptr, i32, %struct.anon.10, ptr, ptr, ptr, ptr, ptr, ptr, ptr, ptr, ptr, ptr, ptr, ptr, ptr, ptr, ptr, ptr, ptr, ptr, ptr, ptr, ptr, ptr, %struct.wl_list, ptr, ptr, ptr, ptr, i32, i32, i8, i8 }
%struct.anon.10 = type { ptr }
%struct.SDL_VideoDevice = type { ptr, ptr, ptr, ptr, ptr, ptr, ptr, ptr, ptr, ptr, ptr, ptr, ptr, ptr, ptr, ptr, ptr, ptr, ptr, ptr, ptr, ptr, ptr, ptr, ptr, ptr, ptr, ptr, ptr, ptr, ptr, ptr, ptr, ptr, ptr, ptr, ptr, ptr, ptr, ptr, ptr, ptr, ptr, ptr, ptr, ptr, ptr, ptr, ptr, ptr, ptr, ptr, ptr, ptr, ptr, ptr, ptr, ptr, ptr, ptr, ptr, ptr, ptr, ptr, ptr, ptr, ptr, ptr, ptr, ptr, ptr, ptr, ptr, ptr, ptr, ptr, ptr, ptr, ptr, ptr, ptr, ptr, ptr, ptr, ptr, ptr, ptr, ptr, ptr, ptr, ptr, ptr, ptr, ptr, ptr, ptr, ptr, i64, i8, i8, i8, ptr, i32, ptr, %struct.SDL_Rect, ptr, ptr, i32, ptr, ptr, ptr, ptr, i64, ptr, i8, i32, i32, %struct.anon.11, ptr, ptr, ptr, ptr, ptr, ptr, %struct.SDL_AtomicInt, %struct.SDL_AtomicInt, i8, %struct.anon.12, ptr, ptr, ptr, ptr, ptr }
%struct.SDL_Rect = type { i32, i32, i32, i32 }
%struct.anon.11 = type { i32, i32, i32, i32, i32, i32, i32, i32, i32, i32, i32, i32, i32, i32, i32, i32, i32, i32, i32, i32, i32, i32, i32, i32, i32, i32, i32, i32, i32, [256 x i8], ptr }
%struct.anon.12 = type { ptr, ptr, i32, [256 x i8], ptr }

@.str.4 = private unnamed_addr constant [29 x i8] c"SDL.video.wayland.wl_display\00", align 1
@WAYLAND_wl_display_disconnect = external global ptr, align 8
@WAYLAND_wl_display_flush = external global ptr, align 8

; Function Attrs: nounwind uwtable
define internal void @Wayland_DeleteDevice(ptr noundef %0) #0 {
  %2 = alloca ptr, align 8
  %3 = alloca ptr, align 8
  store ptr %0, ptr %2, align 8
  call void @llvm.lifetime.start.p0(i64 8, ptr %3) #8
  %4 = load ptr, ptr %2, align 8
  %5 = getelementptr inbounds nuw %struct.SDL_VideoDevice, ptr %4, i32 0, i32 128
  %6 = load ptr, ptr %5, align 8
  store ptr %6, ptr %3, align 8
  %7 = load ptr, ptr %3, align 8
  %8 = getelementptr inbounds nuw %struct.SDL_VideoData, ptr %7, i32 0, i32 1
  %9 = load ptr, ptr %8, align 8
  %10 = icmp ne ptr %9, null
  br i1 %10, label %11, label %28

11:                                               ; preds = %1
  %12 = load ptr, ptr %3, align 8
  %13 = getelementptr inbounds nuw %struct.SDL_VideoData, ptr %12, i32 0, i32 38
  %14 = load i8, ptr %13, align 8, !range !5, !noundef !6
  %15 = trunc i8 %14 to i1
  br i1 %15, label %28, label %16

16:                                               ; preds = %11
  %17 = load ptr, ptr @WAYLAND_wl_display_flush, align 8
  %18 = load ptr, ptr %3, align 8
  %19 = getelementptr inbounds nuw %struct.SDL_VideoData, ptr %18, i32 0, i32 1
  %20 = load ptr, ptr %19, align 8
  %21 = call i32 %17(ptr noundef %20)
  %22 = load ptr, ptr @WAYLAND_wl_display_disconnect, align 8
  %23 = load ptr, ptr %3, align 8
  %24 = getelementptr inbounds nuw %struct.SDL_VideoData, ptr %23, i32 0, i32 1
  %25 = load ptr, ptr %24, align 8
  call void %22(ptr noundef %25)
  %26 = call i32 @SDL_GetGlobalProperties_REAL()
  %27 = call zeroext i1 @SDL_ClearProperty_REAL(i32 noundef %26, ptr noundef @.str.4)
  br label %28

28:                                               ; preds = %16, %11, %1
  %29 = load ptr, ptr %3, align 8
  call void @SDL_free_REAL(ptr noundef %29)
  %30 = load ptr, ptr %2, align 8
  call void @SDL_free_REAL(ptr noundef %30)
  call void @SDL_WAYLAND_UnloadSymbols()
  call void @llvm.lifetime.end.p0(i64 8, ptr %3) #8
  ret void
}