; Function Attrs: nounwind uwtable
define internal void @Wayland_DeleteDevice(ptr noundef %0) #0 {
  %2 = getelementptr inbounds nuw i8, ptr %0, i64 1656
  %3 = load ptr, ptr %2, align 8
  %4 = getelementptr inbounds nuw i8, ptr %3, i64 8
  %5 = load ptr, ptr %4, align 8
  %.not = icmp eq ptr %5, null
  br i1 %.not, label %17, label %6

6:                                                ; preds = %1
  %7 = getelementptr inbounds nuw i8, ptr %3, i64 304
  %8 = load i8, ptr %7, align 8, !range !5, !noundef !6
  %9 = trunc nuw i8 %8 to i1
  br i1 %9, label %17, label %10

10:                                               ; preds = %6
  %11 = load ptr, ptr @WAYLAND_wl_display_flush, align 8
  %12 = tail call i32 %11(ptr noundef nonnull %5) #12
  %13 = load ptr, ptr @WAYLAND_wl_display_disconnect, align 8
  %14 = load ptr, ptr %4, align 8
  tail call void %13(ptr noundef %14) #12
  %15 = tail call i32 @SDL_GetGlobalProperties_REAL() #12
  %16 = tail call zeroext i1 @SDL_ClearProperty_REAL(i32 noundef %15, ptr noundef nonnull @.str.4) #12
  br label %17

17:                                               ; preds = %10, %6, %1
  tail call void @SDL_free_REAL(ptr noundef nonnull %3) #12
  tail call void @SDL_free_REAL(ptr noundef nonnull %0) #12
  tail call void @SDL_WAYLAND_UnloadSymbols() #12
  ret void
}